target datalayout = "e-m:e-p270:32:32-p271:32:32-p272:64:64-i64:64-i128:128-f80:128-n8:16:32:64-S128"
target triple = "x86_64-unknown-linux-gnu"

%struct.RAMList = type { %struct.QemuMutex, ptr, %struct.anon, [3 x ptr], i32, %struct.anon.0 }
%struct.QemuMutex = type { %union.pthread_mutex_t, i8 }
%union.pthread_mutex_t = type { %struct.__pthread_mutex_s }
%struct.__pthread_mutex_s = type { i32, i32, i32, i32, i32, i16, i16, %struct.__pthread_internal_list }
%struct.__pthread_internal_list = type { ptr, ptr }
%struct.anon = type { ptr }
%struct.anon.0 = type { ptr }
%struct.MemoryRegion = type { %struct.Object, i8, i8, i8, i8, i8, i8, i8, i8, i8, i8, ptr, ptr, ptr, ptr, ptr, ptr, i32, i128, i64, ptr, i64, i8, i8, i8, i8, i8, ptr, i64, i32, %union.anon, %union.anon.1, %union.anon.2, ptr, i32, ptr, ptr, i8 }
%struct.Object = type { ptr, ptr, ptr, i32, ptr }
%union.anon = type { %struct.QTailQLink }
%struct.QTailQLink = type { ptr, ptr }
%union.anon.1 = type { %struct.QTailQLink }
%union.anon.2 = type { %struct.QTailQLink }
%struct.rcu_head = type { ptr, ptr }
%struct.QemuEvent = type { i32, i8 }
%struct.RAMBlock = type { %struct.rcu_head, ptr, ptr, ptr, i64, i64, i64, ptr, i32, [256 x i8], %struct.anon.14, %struct.anon.15, i32, i64, i64, ptr, ptr, ptr, i8, i64 }
%struct.anon.14 = type { ptr, ptr }
%struct.anon.15 = type { ptr }
%struct.rcu_reader_data = type { i64, i8, i32, %struct.anon.23, %struct.NotifierList }
%struct.anon.23 = type { ptr, ptr }
%struct.NotifierList = type { %struct.anon.24 }
%struct.anon.24 = type { ptr }

@ram_list = dso_local global %struct.RAMList zeroinitializer, align 8
@.str.1 = private unnamed_addr constant [25 x i8] c"../qemu/system/physmem.c\00", align 1
@.str.13 = private unnamed_addr constant [1 x i8] zeroinitializer, align 1
@.str.14 = private unnamed_addr constant [35 x i8] c"%24s %8s  %18s %18s %18s %18s %3s\0A\00", align 1
@.str.15 = private unnamed_addr constant [11 x i8] c"Block Name\00", align 1
@.str.16 = private unnamed_addr constant [6 x i8] c"PSize\00", align 1
@.str.17 = private unnamed_addr constant [7 x i8] c"Offset\00", align 1
@.str.18 = private unnamed_addr constant [5 x i8] c"Used\00", align 1
@.str.19 = private unnamed_addr constant [6 x i8] c"Total\00", align 1
@.str.20 = private unnamed_addr constant [4 x i8] c"HVA\00", align 1
@.str.21 = private unnamed_addr constant [3 x i8] c"RO\00", align 1
@__func__.ram_block_format = private unnamed_addr constant [17 x i8] c"ram_block_format\00", align 1
@.str.22 = private unnamed_addr constant [51 x i8] c"%24s %8s  0x%016lx 0x%016lx 0x%016lx 0x%016lx %3s\0A\00", align 1
@.str.23 = private unnamed_addr constant [3 x i8] c"ro\00", align 1
@.str.24 = private unnamed_addr constant [3 x i8] c"rw\00", align 1
@.str.125 = private unnamed_addr constant [97 x i8] c"/home/dtcxzyw/WorkSpace/Projects/compilers/llvm-opt-benchmark/bench/qemu/qemu/include/qemu/rcu.h\00", align 1
@__func__.rcu_read_lock = private unnamed_addr constant [14 x i8] c"rcu_read_lock\00", align 1
@rcu_gp_ctr = external global i64, align 8
@.str.126 = private unnamed_addr constant [25 x i8] c"p_rcu_reader->depth != 0\00", align 1
@__PRETTY_FUNCTION__.rcu_read_unlock = private unnamed_addr constant [27 x i8] c"void rcu_read_unlock(void)\00", align 1
@__func__.rcu_read_unlock = private unnamed_addr constant [16 x i8] c"rcu_read_unlock\00", align 1
@rcu_gp_event = external global %struct.QemuEvent, align 4

; Function Attrs: nounwind sspstrong uwtable
define internal void @rcu_read_unlock() #0 {
entry:
  %p_rcu_reader = alloca ptr, align 8
  %.atomictmp = alloca i64, align 8
  %tmp = alloca i8, align 1
  %atomic-temp = alloca i8, align 1
  %.atomictmp23 = alloca i8, align 1
  %call = call ptr @get_ptr_rcu_reader()
  store ptr %call, ptr %p_rcu_reader, align 8
  %0 = load ptr, ptr %p_rcu_reader, align 8
  %depth = getelementptr inbounds %struct.rcu_reader_data, ptr %0, i32 0, i32 2
  %1 = load i32, ptr %depth, align 4
  %cmp = icmp ne i32 %1, 0
  br i1 %cmp, label %if.then, label %if.else

if.then:                                          ; preds = %entry
  br label %if.end

if.else:                                          ; preds = %entry
  call void @__assert_fail(ptr noundef @.str.126, ptr noundef @.str.125, i32 noundef 101, ptr noundef @__PRETTY_FUNCTION__.rcu_read_unlock) #13
  unreachable

if.end:                                           ; preds = %if.then
  %2 = load ptr, ptr %p_rcu_reader, align 8
  %depth1 = getelementptr inbounds %struct.rcu_reader_data, ptr %2, i32 0, i32 2
  %3 = load i32, ptr %depth1, align 4
  %dec = add i32 %3, -1
  store i32 %dec, ptr %depth1, align 4
  %cmp2 = icmp ugt i32 %dec, 0
  br i1 %cmp2, label %if.then3, label %if.end4

if.then3:                                         ; preds = %if.end
  br label %if.end25

if.end4:                                          ; preds = %if.end
  br label %do.body

do.body:                                          ; preds = %if.end4
  br label %while.cond

while.cond:                                       ; preds = %do.end, %do.body
  br i1 false, label %while.body, label %while.end

while.body:                                       ; preds = %while.cond
  br label %do.body5

do.body5:                                         ; preds = %while.body
  call void @g_assertion_message_expr(ptr noundef null, ptr noundef @.str.125, i32 noundef 111, ptr noundef @__func__.rcu_read_unlock, ptr noundef null) #14
  unreachable

do.end:                                           ; No predecessors!
  br label %while.cond

while.end:                                        ; preds = %while.cond
  %4 = load ptr, ptr %p_rcu_reader, align 8
  %ctr = getelementptr inbounds %struct.rcu_reader_data, ptr %4, i32 0, i32 0
  store i64 0, ptr %.atomictmp, align 8
  %5 = load i64, ptr %.atomictmp, align 8
  store atomic i64 %5, ptr %ctr release, align 8
  br label %do.end6

do.end6:                                          ; preds = %while.end
  call void asm sideeffect "", "~{memory},~{dirflag},~{fpsr},~{flags}"() #15, !srcloc !61
  fence seq_cst
  br label %while.cond7

while.cond7:                                      ; preds = %do.end10, %do.end6
  br i1 false, label %while.body8, label %while.end11

while.body8:                                      ; preds = %while.cond7
  br label %do.body9

do.body9:                                         ; preds = %while.body8
  call void @g_assertion_message_expr(ptr noundef null, ptr noundef @.str.125, i32 noundef 115, ptr noundef @__func__.rcu_read_unlock, ptr noundef null) #14
  unreachable

do.end10:                                         ; No predecessors!
  br label %while.cond7

while.end11:                                      ; preds = %while.cond7
  %6 = load ptr, ptr %p_rcu_reader, align 8
  %waiting = getelementptr inbounds %struct.rcu_reader_data, ptr %6, i32 0, i32 1
  %7 = load atomic i8, ptr %waiting monotonic, align 8
  store i8 %7, ptr %atomic-temp, align 1
  %8 = load i8, ptr %atomic-temp, align 1
  %tobool = trunc i8 %8 to i1
  %frombool = zext i1 %tobool to i8
  store i8 %frombool, ptr %tmp, align 1
  %9 = load i8, ptr %tmp, align 1
  %tobool12 = trunc i8 %9 to i1
  %lnot = xor i1 %tobool12, true
  %lnot13 = xor i1 %lnot, true
  %lnot.ext = zext i1 %lnot13 to i32
  %conv = sext i32 %lnot.ext to i64
  %tobool14 = icmp ne i64 %conv, 0
  br i1 %tobool14, label %if.then15, label %if.end25

if.then15:                                        ; preds = %while.end11
  br label %do.body16

do.body16:                                        ; preds = %if.then15
  br label %while.cond17

while.cond17:                                     ; preds = %do.end20, %do.body16
  br i1 false, label %while.body18, label %while.end21

while.body18:                                     ; preds = %while.cond17
  br label %do.body19

do.body19:                                        ; preds = %while.body18
  call void @g_assertion_message_expr(ptr noundef null, ptr noundef @.str.125, i32 noundef 116, ptr noundef @__func__.rcu_read_unlock, ptr noundef null) #14
  unreachable

do.end20:                                         ; No predecessors!
  br label %while.cond17

while.end21:                                      ; preds = %while.cond17
  %10 = load ptr, ptr %p_rcu_reader, align 8
  %waiting22 = getelementptr inbounds %struct.rcu_reader_data, ptr %10, i32 0, i32 1
  store i8 0, ptr %.atomictmp23, align 1
  %11 = load i8, ptr %.atomictmp23, align 1
  store atomic i8 %11, ptr %waiting22 monotonic, align 8
  br label %do.end24

do.end24:                                         ; preds = %while.end21
  call void @qemu_event_set(ptr noundef @rcu_gp_event)
  br label %if.end25

if.end25:                                         ; preds = %do.end24, %while.end11, %if.then3
  ret void
}

; Function Attrs: nounwind sspstrong uwtable
define internal void @rcu_read_auto_unlock(ptr noundef %r) #0 {
entry:
  %r.addr = alloca ptr, align 8
  store ptr %r, ptr %r.addr, align 8
  call void @rcu_read_unlock()
  ret void
}

; Function Attrs: nounwind sspstrong uwtable
define internal void @glib_autoptr_clear_RCUReadAuto(ptr noundef %_ptr) #0 {
entry:
  %_ptr.addr = alloca ptr, align 8
  store ptr %_ptr, ptr %_ptr.addr, align 8
  %0 = load ptr, ptr %_ptr.addr, align 8
  %tobool = icmp ne ptr %0, null
  br i1 %tobool, label %if.then, label %if.end

if.then:                                          ; preds = %entry
  %1 = load ptr, ptr %_ptr.addr, align 8
  call void @rcu_read_auto_unlock(ptr noundef %1)
  br label %if.end

if.end:                                           ; preds = %if.then, %entry
  ret void
}

; Function Attrs: nounwind sspstrong uwtable
define internal void @rcu_read_lock() #0 {
entry:
  %p_rcu_reader = alloca ptr, align 8
  %ctr = alloca i32, align 4
  %tmp = alloca i64, align 8
  %atomic-temp = alloca i64, align 8
  %.atomictmp = alloca i64, align 8
  %call = call ptr @get_ptr_rcu_reader()
  store ptr %call, ptr %p_rcu_reader, align 8
  %0 = load ptr, ptr %p_rcu_reader, align 8
  %depth = getelementptr inbounds %struct.rcu_reader_data, ptr %0, i32 0, i32 2
  %1 = load i32, ptr %depth, align 4
  %inc = add i32 %1, 1
  store i32 %inc, ptr %depth, align 4
  %cmp = icmp ugt i32 %1, 0
  br i1 %cmp, label %if.then, label %if.end

if.then:                                          ; preds = %entry
  br label %return

if.end:                                           ; preds = %entry
  br label %while.cond

while.cond:                                       ; preds = %do.end, %if.end
  br i1 false, label %while.body, label %while.end

while.body:                                       ; preds = %while.cond
  br label %do.body

do.body:                                          ; preds = %while.body
  call void @g_assertion_message_expr(ptr noundef null, ptr noundef @.str.125, i32 noundef 87, ptr noundef @__func__.rcu_read_lock, ptr noundef null) #14
  unreachable

do.end:                                           ; No predecessors!
  br label %while.cond

while.end:                                        ; preds = %while.cond
  %2 = load atomic i64, ptr @rcu_gp_ctr monotonic, align 8
  store i64 %2, ptr %atomic-temp, align 8
  %3 = load i64, ptr %atomic-temp, align 8
  store i64 %3, ptr %tmp, align 8
  %4 = load i64, ptr %tmp, align 8
  %conv = trunc i64 %4 to i32
  store i32 %conv, ptr %ctr, align 4
  br label %do.body1

do.body1:                                         ; preds = %while.end
  br label %while.cond2

while.cond2:                                      ; preds = %do.end5, %do.body1
  br i1 false, label %while.body3, label %while.end6

while.body3:                                      ; preds = %while.cond2
  br label %do.body4

do.body4:                                         ; preds = %while.body3
  call void @g_assertion_message_expr(ptr noundef null, ptr noundef @.str.125, i32 noundef 88, ptr noundef @__func__.rcu_read_lock, ptr noundef null) #14
  unreachable

do.end5:                                          ; No predecessors!
  br label %while.cond2

while.end6:                                       ; preds = %while.cond2
  %5 = load ptr, ptr %p_rcu_reader, align 8
  %ctr7 = getelementptr inbounds %struct.rcu_reader_data, ptr %5, i32 0, i32 0
  %6 = load i32, ptr %ctr, align 4
  %conv8 = zext i32 %6 to i64
  store i64 %conv8, ptr %.atomictmp, align 8
  %7 = load i64, ptr %.atomictmp, align 8
  store atomic i64 %7, ptr %ctr7 monotonic, align 8
  br label %do.end9

do.end9:                                          ; preds = %while.end6
  call void asm sideeffect "", "~{memory},~{dirflag},~{fpsr},~{flags}"() #15, !srcloc !60
  fence seq_cst
  br label %return

return:                                           ; preds = %do.end9, %if.then
  ret void
}

; Function Attrs: nounwind sspstrong uwtable
define internal void @glib_autoptr_cleanup_RCUReadAuto(ptr noundef %_ptr) #0 {
entry:
  %_ptr.addr = alloca ptr, align 8
  store ptr %_ptr, ptr %_ptr.addr, align 8
  %0 = load ptr, ptr %_ptr.addr, align 8
  %1 = load ptr, ptr %0, align 8
  call void @glib_autoptr_clear_RCUReadAuto(ptr noundef %1)
  ret void
}

; Function Attrs: nounwind sspstrong uwtable
define internal ptr @rcu_read_auto_lock() #0 {
entry:
  call void @rcu_read_lock()
  %0 = inttoptr i64 1 to ptr
  ret ptr %0
}

; Function Attrs: nounwind sspstrong uwtable
define dso_local ptr @ram_block_format() #0 {
entry:
  %block = alloca ptr, align 8
  %psize = alloca ptr, align 8
  %buf = alloca ptr, align 8
  %_rcu_read_auto = alloca ptr, align 8
  %_val41 = alloca ptr, align 8
  %tmp = alloca ptr, align 8
  %_val42 = alloca ptr, align 8
  %tmp10 = alloca ptr, align 8
  %call = call ptr @g_string_new(ptr noundef @.str.13)
  store ptr %call, ptr %buf, align 8
  %call1 = call ptr @rcu_read_auto_lock()
  store ptr %call1, ptr %_rcu_read_auto, align 8
  %0 = load ptr, ptr %buf, align 8
  call void (ptr, ptr, ...) @g_string_append_printf(ptr noundef %0, ptr noundef @.str.14, ptr noundef @.str.15, ptr noundef @.str.16, ptr noundef @.str.17, ptr noundef @.str.18, ptr noundef @.str.19, ptr noundef @.str.20, ptr noundef @.str.21)
  br label %while.cond

while.cond:                                       ; preds = %do.end, %entry
  br i1 false, label %while.body, label %while.end

while.body:                                       ; preds = %while.cond
  br label %do.body

do.body:                                          ; preds = %while.body
  call void @g_assertion_message_expr(ptr noundef null, ptr noundef @.str.1, i32 noundef 1132, ptr noundef @__func__.ram_block_format, ptr noundef null) #14
  unreachable

do.cond:                                          ; No predecessors!
  br label %do.end

do.end:                                           ; preds = %do.cond
  br label %while.cond

while.end:                                        ; preds = %while.cond
  %1 = getelementptr inbounds %struct.RAMList, ptr @ram_list, i32 0, i32 2
  %2 = load atomic i64, ptr %1 monotonic, align 8
  store i64 %2, ptr %_val41, align 8
  call void asm sideeffect "", "~{memory},~{dirflag},~{fpsr},~{flags}"() #15, !srcloc !24
  %3 = load ptr, ptr %_val41, align 8
  store ptr %3, ptr %tmp, align 8
  %4 = load ptr, ptr %tmp, align 8
  store ptr %4, ptr %block, align 8
  br label %for.cond

for.cond:                                         ; preds = %while.end9, %while.end
  %5 = load ptr, ptr %block, align 8
  %tobool = icmp ne ptr %5, null
  br i1 %tobool, label %for.body, label %for.end

for.body:                                         ; preds = %for.cond
  %6 = load ptr, ptr %block, align 8
  %page_size = getelementptr inbounds %struct.RAMBlock, ptr %6, i32 0, i32 14
  %7 = load i64, ptr %page_size, align 8
  %call2 = call ptr @size_to_str(i64 noundef %7)
  store ptr %call2, ptr %psize, align 8
  %8 = load ptr, ptr %buf, align 8
  %9 = load ptr, ptr %block, align 8
  %idstr = getelementptr inbounds %struct.RAMBlock, ptr %9, i32 0, i32 9
  %arraydecay = getelementptr inbounds [256 x i8], ptr %idstr, i64 0, i64 0
  %10 = load ptr, ptr %psize, align 8
  %11 = load ptr, ptr %block, align 8
  %offset = getelementptr inbounds %struct.RAMBlock, ptr %11, i32 0, i32 4
  %12 = load i64, ptr %offset, align 8
  %13 = load ptr, ptr %block, align 8
  %used_length = getelementptr inbounds %struct.RAMBlock, ptr %13, i32 0, i32 5
  %14 = load i64, ptr %used_length, align 8
  %15 = load ptr, ptr %block, align 8
  %max_length = getelementptr inbounds %struct.RAMBlock, ptr %15, i32 0, i32 6
  %16 = load i64, ptr %max_length, align 8
  %17 = load ptr, ptr %block, align 8
  %host = getelementptr inbounds %struct.RAMBlock, ptr %17, i32 0, i32 2
  %18 = load ptr, ptr %host, align 8
  %19 = ptrtoint ptr %18 to i64
  %20 = load ptr, ptr %block, align 8
  %mr = getelementptr inbounds %struct.RAMBlock, ptr %20, i32 0, i32 1
  %21 = load ptr, ptr %mr, align 8
  %readonly = getelementptr inbounds %struct.MemoryRegion, ptr %21, i32 0, i32 4
  %22 = load i8, ptr %readonly, align 1
  %tobool3 = trunc i8 %22 to i1
  %cond = select i1 %tobool3, ptr @.str.23, ptr @.str.24
  call void (ptr, ptr, ...) @g_string_append_printf(ptr noundef %8, ptr noundef @.str.22, ptr noundef %arraydecay, ptr noundef %10, i64 noundef %12, i64 noundef %14, i64 noundef %16, i64 noundef %19, ptr noundef %cond)
  %23 = load ptr, ptr %psize, align 8
  call void @g_free(ptr noundef %23)
  br label %for.inc

for.inc:                                          ; preds = %for.body
  br label %while.cond4

while.cond4:                                      ; preds = %do.end8, %for.inc
  br i1 false, label %while.body5, label %while.end9

while.body5:                                      ; preds = %while.cond4
  br label %do.body6

do.body6:                                         ; preds = %while.body5
  call void @g_assertion_message_expr(ptr noundef null, ptr noundef @.str.1, i32 noundef 1132, ptr noundef @__func__.ram_block_format, ptr noundef null) #14
  unreachable

do.cond7:                                         ; No predecessors!
  br label %do.end8

do.end8:                                          ; preds = %do.cond7
  br label %while.cond4

while.end9:                                       ; preds = %while.cond4
  %24 = load ptr, ptr %block, align 8
  %next = getelementptr inbounds %struct.RAMBlock, ptr %24, i32 0, i32 10
  %le_next = getelementptr inbounds %struct.anon.14, ptr %next, i32 0, i32 0
  %25 = load atomic i64, ptr %le_next monotonic, align 8
  store i64 %25, ptr %_val42, align 8
  call void asm sideeffect "", "~{memory},~{dirflag},~{fpsr},~{flags}"() #15, !srcloc !25
  %26 = load ptr, ptr %_val42, align 8
  store ptr %26, ptr %tmp10, align 8
  %27 = load ptr, ptr %tmp10, align 8
  store ptr %27, ptr %block, align 8
  br label %for.cond, !llvm.loop !26

for.end:                                          ; preds = %for.cond
  %28 = load ptr, ptr %buf, align 8
  call void @glib_autoptr_cleanup_RCUReadAuto(ptr noundef %_rcu_read_auto)
  ret ptr %28
}