; Function Attrs: nounwind sspstrong uwtable
define dso_local ptr @ram_block_format() local_unnamed_addr #0 {
entry:
  %call = tail call ptr @g_string_new(ptr noundef nonnull @.str.13) #28
  %call.i.i = tail call ptr @get_ptr_rcu_reader() #28
  %depth.i.i = getelementptr inbounds nuw i8, ptr %call.i.i, i64 12
  %0 = load i32, ptr %depth.i.i, align 4
  %inc.i.i = add i32 %0, 1
  store i32 %inc.i.i, ptr %depth.i.i, align 4
  %cmp.not.i.i = icmp eq i32 %0, 0
  br i1 %cmp.not.i.i, label %while.end.i.i, label %rcu_read_auto_lock.exit

while.end.i.i:                                    ; preds = %entry
  %1 = load atomic i64, ptr @rcu_gp_ctr monotonic, align 8
  %conv8.i.i = and i64 %1, 4294967295
  store atomic i64 %conv8.i.i, ptr %call.i.i monotonic, align 8
  tail call void asm sideeffect "", "~{memory},~{dirflag},~{fpsr},~{flags}"() #28, !srcloc !15
  fence seq_cst
  br label %rcu_read_auto_lock.exit

rcu_read_auto_lock.exit:                          ; preds = %entry, %while.end.i.i
  tail call void (ptr, ptr, ...) @g_string_append_printf(ptr noundef %call, ptr noundef nonnull @.str.14, ptr noundef nonnull @.str.15, ptr noundef nonnull @.str.16, ptr noundef nonnull @.str.17, ptr noundef nonnull @.str.18, ptr noundef nonnull @.str.19, ptr noundef nonnull @.str.20, ptr noundef nonnull @.str.21) #28
  %2 = load atomic i64, ptr getelementptr inbounds nuw (i8, ptr @ram_list, i64 56) monotonic, align 8
  tail call void asm sideeffect "", "~{memory},~{dirflag},~{fpsr},~{flags}"() #28, !srcloc !30
  %tobool.not12 = icmp eq i64 %2, 0
  br i1 %tobool.not12, label %if.then.i.i, label %for.body

for.body:                                         ; preds = %rcu_read_auto_lock.exit, %for.body
  %block.0.in13 = phi i64 [ %11, %for.body ], [ %2, %rcu_read_auto_lock.exit ]
  %block.0 = inttoptr i64 %block.0.in13 to ptr
  %page_size = getelementptr inbounds nuw i8, ptr %block.0, i64 376
  %3 = load i64, ptr %page_size, align 8
  %call2 = tail call ptr @size_to_str(i64 noundef %3) #28
  %idstr = getelementptr inbounds nuw i8, ptr %block.0, i64 76
  %offset = getelementptr inbounds nuw i8, ptr %block.0, i64 40
  %4 = load i64, ptr %offset, align 8
  %used_length = getelementptr inbounds nuw i8, ptr %block.0, i64 48
  %5 = load i64, ptr %used_length, align 8
  %max_length = getelementptr inbounds nuw i8, ptr %block.0, i64 56
  %6 = load i64, ptr %max_length, align 8
  %host = getelementptr inbounds nuw i8, ptr %block.0, i64 24
  %7 = load ptr, ptr %host, align 8
  %8 = ptrtoint ptr %7 to i64
  %mr = getelementptr inbounds nuw i8, ptr %block.0, i64 16
  %9 = load ptr, ptr %mr, align 8
  %readonly = getelementptr inbounds nuw i8, ptr %9, i64 43
  %10 = load i8, ptr %readonly, align 1
  %tobool3 = trunc i8 %10 to i1
  %cond = select i1 %tobool3, ptr @.str.23, ptr @.str.24
  tail call void (ptr, ptr, ...) @g_string_append_printf(ptr noundef %call, ptr noundef nonnull @.str.22, ptr noundef nonnull %idstr, ptr noundef %call2, i64 noundef %4, i64 noundef %5, i64 noundef %6, i64 noundef %8, ptr noundef nonnull %cond) #28
  tail call void @g_free(ptr noundef %call2) #28
  %next = getelementptr inbounds nuw i8, ptr %block.0, i64 336
  %11 = load atomic i64, ptr %next monotonic, align 8
  tail call void asm sideeffect "", "~{memory},~{dirflag},~{fpsr},~{flags}"() #28, !srcloc !31
  %tobool.not = icmp eq i64 %11, 0
  br i1 %tobool.not, label %if.then.i.i, label %for.body, !llvm.loop !32

if.then.i.i:                                      ; preds = %for.body, %rcu_read_auto_lock.exit
  %call.i.i.i.i = tail call ptr @get_ptr_rcu_reader() #28
  %depth.i.i.i.i = getelementptr inbounds nuw i8, ptr %call.i.i.i.i, i64 12
  %12 = load i32, ptr %depth.i.i.i.i, align 4
  %cmp.not.i.i.i.i = icmp eq i32 %12, 0
  br i1 %cmp.not.i.i.i.i, label %if.else.i.i.i.i, label %if.end.i.i.i.i

if.else.i.i.i.i:                                  ; preds = %if.then.i.i
  tail call void @__assert_fail(ptr noundef nonnull @.str.126, ptr noundef nonnull @.str.125, i32 noundef 101, ptr noundef nonnull @__PRETTY_FUNCTION__.rcu_read_unlock) #27
  unreachable

if.end.i.i.i.i:                                   ; preds = %if.then.i.i
  %dec.i.i.i.i = add i32 %12, -1
  store i32 %dec.i.i.i.i, ptr %depth.i.i.i.i, align 4
  %cmp2.not.i.i.i.i = icmp eq i32 %dec.i.i.i.i, 0
  br i1 %cmp2.not.i.i.i.i, label %while.end.i.i.i.i, label %glib_autoptr_cleanup_RCUReadAuto.exit

while.end.i.i.i.i:                                ; preds = %if.end.i.i.i.i
  store atomic i64 0, ptr %call.i.i.i.i release, align 8
  tail call void asm sideeffect "", "~{memory},~{dirflag},~{fpsr},~{flags}"() #28, !srcloc !22
  fence seq_cst
  %waiting.i.i.i.i = getelementptr inbounds nuw i8, ptr %call.i.i.i.i, i64 8
  %13 = load atomic i8, ptr %waiting.i.i.i.i monotonic, align 8
  %tobool.i.i.i.i = trunc i8 %13 to i1
  br i1 %tobool.i.i.i.i, label %while.end21.i.i.i.i, label %glib_autoptr_cleanup_RCUReadAuto.exit

while.end21.i.i.i.i:                              ; preds = %while.end.i.i.i.i
  store atomic i8 0, ptr %waiting.i.i.i.i monotonic, align 8
  tail call void @qemu_event_set(ptr noundef nonnull @rcu_gp_event) #28
  br label %glib_autoptr_cleanup_RCUReadAuto.exit

glib_autoptr_cleanup_RCUReadAuto.exit:            ; preds = %if.end.i.i.i.i, %while.end.i.i.i.i, %while.end21.i.i.i.i
  ret ptr %call
}